; Function Attrs: null_pointer_is_valid sspstrong uwtable
define hidden ptr @xmpp_steal_element_by_name(ptr noundef readonly captures(none) %0, ptr noundef %1) local_unnamed_addr #0 {
  %3 = tail call ptr @wmem_packet_scope()
  %4 = tail call noalias dereferenceable_or_null(64) ptr @wmem_alloc(ptr noundef %3, i64 noundef 64) #10
  %5 = tail call ptr @wmem_packet_scope()
  %6 = tail call noalias ptr @wmem_strdup(ptr noundef %5, ptr noundef %1)
  store ptr %6, ptr %4, align 8
  %7 = getelementptr inbounds nuw i8, ptr %0, i64 32
  %8 = load ptr, ptr %7, align 8
  %9 = tail call ptr @g_list_find_custom(ptr noundef %8, ptr noundef %4, ptr noundef nonnull @xmpp_element_t_cmp)
  %.not = icmp eq ptr %9, null
  br i1 %.not, label %13, label %10

10:                                               ; preds = %2
  %11 = load ptr, ptr %9, align 8
  %12 = getelementptr inbounds nuw i8, ptr %11, i64 56
  store i8 1, ptr %12, align 8
  br label %13

13:                                               ; preds = %10, %2
  %.0 = phi ptr [ %11, %10 ], [ null, %2 ]
  ret ptr %.0
}